target datalayout = "e-m:e-p270:32:32-p271:32:32-p272:64:64-i64:64-i128:128-f80:128-n8:16:32:64-S128"
target triple = "x86_64-pc-linux-gnu"

%struct.bignum_st = type { ptr, i32, i32, i32, i32 }

@.str = private unnamed_addr constant [31 x i8] c"../openssl/crypto/bn/bn_rand.c\00", align 1
@__func__.ossl_bn_priv_rand_range_fixed_top = private unnamed_addr constant [34 x i8] c"ossl_bn_priv_rand_range_fixed_top\00", align 1

; Function Attrs: nounwind uwtable
define i32 @ossl_bn_priv_rand_range_fixed_top(ptr noundef %0, ptr noundef %1, i32 noundef %2, ptr noundef %3) #0 {
  %5 = alloca i32, align 4
  %6 = alloca ptr, align 8
  %7 = alloca ptr, align 8
  %8 = alloca i32, align 4
  %9 = alloca ptr, align 8
  %10 = alloca i32, align 4
  %11 = alloca i32, align 4
  %12 = alloca i32, align 4
  store ptr %0, ptr %6, align 8, !tbaa !3
  store ptr %1, ptr %7, align 8, !tbaa !3
  store i32 %2, ptr %8, align 4, !tbaa !8
  store ptr %3, ptr %9, align 8, !tbaa !10
  call void @llvm.lifetime.start.p0(i64 4, ptr %10) #4
  call void @llvm.lifetime.start.p0(i64 4, ptr %11) #4
  store i32 100, ptr %11, align 4, !tbaa !8
  %13 = load ptr, ptr %6, align 8, !tbaa !3
  %14 = icmp eq ptr %13, null
  br i1 %14, label %15, label %16

15:                                               ; preds = %4
  call void @ERR_new()
  call void @ERR_set_debug(ptr noundef @.str, i32 noundef 248, ptr noundef @__func__.ossl_bn_priv_rand_range_fixed_top)
  call void (i32, i32, ptr, ...) @ERR_set_error(i32 noundef 3, i32 noundef 786690, ptr noundef null)
  store i32 0, ptr %5, align 4
  store i32 1, ptr %12, align 4
  br label %60

16:                                               ; preds = %4
  %17 = load ptr, ptr %7, align 8, !tbaa !3
  %18 = getelementptr inbounds nuw %struct.bignum_st, ptr %17, i32 0, i32 3
  %19 = load i32, ptr %18, align 8, !tbaa !19
  %20 = icmp ne i32 %19, 0
  br i1 %20, label %25, label %21

21:                                               ; preds = %16
  %22 = load ptr, ptr %7, align 8, !tbaa !3
  %23 = call i32 @BN_is_zero(ptr noundef %22)
  %24 = icmp ne i32 %23, 0
  br i1 %24, label %25, label %26

25:                                               ; preds = %21, %16
  call void @ERR_new()
  call void @ERR_set_debug(ptr noundef @.str, i32 noundef 253, ptr noundef @__func__.ossl_bn_priv_rand_range_fixed_top)
  call void (i32, i32, ptr, ...) @ERR_set_error(i32 noundef 3, i32 noundef 115, ptr noundef null)
  store i32 0, ptr %5, align 4
  store i32 1, ptr %12, align 4
  br label %60

26:                                               ; preds = %21
  %27 = load ptr, ptr %7, align 8, !tbaa !3
  %28 = call i32 @BN_num_bits(ptr noundef %27)
  store i32 %28, ptr %10, align 4, !tbaa !8
  %29 = load i32, ptr %10, align 4, !tbaa !8
  %30 = icmp eq i32 %29, 1
  br i1 %30, label %31, label %33

31:                                               ; preds = %26
  %32 = load ptr, ptr %6, align 8, !tbaa !3
  call void @BN_zero_ex(ptr noundef %32)
  br label %59

33:                                               ; preds = %26
  %34 = load ptr, ptr %6, align 8, !tbaa !3
  call void @BN_set_flags(ptr noundef %34, i32 noundef 4)
  br label %35

35:                                               ; preds = %53, %33
  %36 = load ptr, ptr %6, align 8, !tbaa !3
  %37 = load i32, ptr %10, align 4, !tbaa !8
  %38 = add nsw i32 %37, 1
  %39 = load i32, ptr %8, align 4, !tbaa !8
  %40 = load ptr, ptr %9, align 8, !tbaa !10
  %41 = call i32 @bnrand(i32 noundef 2, ptr noundef %36, i32 noundef %38, i32 noundef 0, i32 noundef 0, i32 noundef %39, ptr noundef %40)
  %42 = icmp ne i32 %41, 0
  br i1 %42, label %44, label %43

43:                                               ; preds = %35
  store i32 0, ptr %5, align 4
  store i32 1, ptr %12, align 4
  br label %60

44:                                               ; preds = %35
  %45 = load i32, ptr %11, align 4, !tbaa !8
  %46 = add nsw i32 %45, -1
  store i32 %46, ptr %11, align 4, !tbaa !8
  %47 = icmp ne i32 %46, 0
  br i1 %47, label %49, label %48

48:                                               ; preds = %44
  call void @ERR_new()
  call void @ERR_set_debug(ptr noundef @.str, i32 noundef 271, ptr noundef @__func__.ossl_bn_priv_rand_range_fixed_top)
  call void (i32, i32, ptr, ...) @ERR_set_error(i32 noundef 3, i32 noundef 113, ptr noundef null)
  store i32 0, ptr %5, align 4
  store i32 1, ptr %12, align 4
  br label %60

49:                                               ; preds = %44
  %50 = load ptr, ptr %6, align 8, !tbaa !3
  %51 = load i32, ptr %10, align 4, !tbaa !8
  %52 = call i32 @ossl_bn_mask_bits_fixed_top(ptr noundef %50, i32 noundef %51)
  br label %53

53:                                               ; preds = %49
  %54 = load ptr, ptr %6, align 8, !tbaa !3
  %55 = load ptr, ptr %7, align 8, !tbaa !3
  %56 = call i32 @BN_ucmp(ptr noundef %54, ptr noundef %55)
  %57 = icmp sge i32 %56, 0
  br i1 %57, label %35, label %58, !llvm.loop !24

58:                                               ; preds = %53
  br label %59

59:                                               ; preds = %58, %31
  store i32 1, ptr %5, align 4
  store i32 1, ptr %12, align 4
  br label %60

60:                                               ; preds = %59, %48, %43, %25, %15
  call void @llvm.lifetime.end.p0(i64 4, ptr %11) #4
  call void @llvm.lifetime.end.p0(i64 4, ptr %10) #4
  %61 = load i32, ptr %5, align 4
  ret i32 %61
}