; Function Attrs: nounwind uwtable
define range(i32 0, 2) i32 @ossl_bn_priv_rand_range_fixed_top(ptr noundef %0, ptr noundef %1, i32 noundef %2, ptr noundef %3) local_unnamed_addr #0 {
  %5 = icmp eq ptr %0, null
  br i1 %5, label %6, label %7

6:                                                ; preds = %4
  tail call void @ERR_new() #5
  tail call void @ERR_set_debug(ptr noundef nonnull @.str, i32 noundef 248, ptr noundef nonnull @__func__.ossl_bn_priv_rand_range_fixed_top) #5
  tail call void (i32, i32, ptr, ...) @ERR_set_error(i32 noundef 3, i32 noundef 786690, ptr noundef null) #5
  br label %.loopexit

7:                                                ; preds = %4
  %8 = getelementptr inbounds nuw i8, ptr %1, i64 16
  %9 = load i32, ptr %8, align 8, !tbaa !8
  %.not = icmp eq i32 %9, 0
  br i1 %.not, label %10, label %12

10:                                               ; preds = %7
  %11 = tail call i32 @BN_is_zero(ptr noundef nonnull %1) #5
  %.not20 = icmp eq i32 %11, 0
  br i1 %.not20, label %13, label %12

12:                                               ; preds = %10, %7
  tail call void @ERR_new() #5
  tail call void @ERR_set_debug(ptr noundef nonnull @.str, i32 noundef 253, ptr noundef nonnull @__func__.ossl_bn_priv_rand_range_fixed_top) #5
  tail call void (i32, i32, ptr, ...) @ERR_set_error(i32 noundef 3, i32 noundef 115, ptr noundef null) #5
  br label %.loopexit

13:                                               ; preds = %10
  %14 = tail call i32 @BN_num_bits(ptr noundef nonnull %1) #5
  %15 = icmp eq i32 %14, 1
  br i1 %15, label %16, label %17

16:                                               ; preds = %13
  tail call void @BN_zero_ex(ptr noundef nonnull %0) #5
  br label %.loopexit

17:                                               ; preds = %13
  tail call void @BN_set_flags(ptr noundef nonnull %0, i32 noundef 4) #5
  %18 = add nsw i32 %14, 1
  br label %19

19:                                               ; preds = %24, %17
  %.0 = phi i32 [ 100, %17 ], [ %22, %24 ]
  %20 = tail call fastcc i32 @bnrand(i32 noundef 2, ptr noundef nonnull %0, i32 noundef %18, i32 noundef 0, i32 noundef 0, i32 noundef %2, ptr noundef %3)
  %.not21 = icmp eq i32 %20, 0
  br i1 %.not21, label %.loopexit, label %21

21:                                               ; preds = %19
  %22 = add nsw i32 %.0, -1
  %.not22 = icmp eq i32 %22, 0
  br i1 %.not22, label %23, label %24

23:                                               ; preds = %21
  tail call void @ERR_new() #5
  tail call void @ERR_set_debug(ptr noundef nonnull @.str, i32 noundef 271, ptr noundef nonnull @__func__.ossl_bn_priv_rand_range_fixed_top) #5
  tail call void (i32, i32, ptr, ...) @ERR_set_error(i32 noundef 3, i32 noundef 113, ptr noundef null) #5
  br label %.loopexit

24:                                               ; preds = %21
  %25 = tail call i32 @ossl_bn_mask_bits_fixed_top(ptr noundef nonnull %0, i32 noundef %14) #5
  %26 = tail call i32 @BN_ucmp(ptr noundef nonnull %0, ptr noundef nonnull %1) #5
  %27 = icmp sgt i32 %26, -1
  br i1 %27, label %19, label %.loopexit, !llvm.loop !15

.loopexit:                                        ; preds = %24, %19, %16, %23, %12, %6
  %.016 = phi i32 [ 0, %6 ], [ 0, %12 ], [ 0, %23 ], [ 1, %16 ], [ 1, %24 ], [ 0, %19 ]
  ret i32 %.016
}